; Function Attrs: nounwind sspstrong uwtable
define internal i64 @ancillary_ip_pktinfo(i64 noundef %0) #0 {
  %2 = alloca i64, align 8
  %3 = alloca %struct.sockaddr_in, align 4
  call void @llvm.lifetime.start.p0(i64 16, ptr nonnull %3) #10
  %.pr.i.i = load i64, ptr @ancillary_level.rbimpl_id, align 8, !tbaa !6
  %.not4.i.i = icmp eq i64 %.pr.i.i, 0
  br i1 %.not4.i.i, label %.lr.ph.i.i, label %rbimpl_intern_const.exit.i

.lr.ph.i.i:                                       ; preds = %1, %.lr.ph.i.i
  %4 = tail call i64 @rb_intern2(ptr noundef nonnull @.str.4, i64 noundef 5) #10
  store i64 %4, ptr @ancillary_level.rbimpl_id, align 8, !tbaa !6
  %.not.i.i = icmp eq i64 %4, 0
  br i1 %.not.i.i, label %.lr.ph.i.i, label %rbimpl_intern_const.exit.i, !llvm.loop !17

rbimpl_intern_const.exit.i:                       ; preds = %.lr.ph.i.i, %1
  %.lcssa.i.i = phi i64 [ %.pr.i.i, %1 ], [ %4, %.lr.ph.i.i ]
  %5 = tail call i64 @rb_attr_get(i64 noundef %0, i64 noundef %.lcssa.i.i) #10
  %6 = and i64 %5, 1
  %.not.i3.i = icmp eq i64 %6, 0
  br i1 %.not.i3.i, label %9, label %7

7:                                                ; preds = %rbimpl_intern_const.exit.i
  %8 = tail call i64 @rb_fix2int(i64 noundef %5) #10
  br label %ancillary_level.exit

9:                                                ; preds = %rbimpl_intern_const.exit.i
  %10 = tail call i64 @rb_num2int(i64 noundef %5) #10
  br label %ancillary_level.exit

ancillary_level.exit:                             ; preds = %7, %9
  %.0.i.i = phi i64 [ %8, %7 ], [ %10, %9 ]
  %.pr.i.i10 = load i64, ptr @ancillary_type.rbimpl_id, align 8, !tbaa !6
  %.not4.i.i11 = icmp eq i64 %.pr.i.i10, 0
  br i1 %.not4.i.i11, label %.lr.ph.i.i16, label %rbimpl_intern_const.exit.i12

.lr.ph.i.i16:                                     ; preds = %ancillary_level.exit, %.lr.ph.i.i16
  %11 = tail call i64 @rb_intern2(ptr noundef nonnull @.str.5, i64 noundef 4) #10
  store i64 %11, ptr @ancillary_type.rbimpl_id, align 8, !tbaa !6
  %.not.i.i17 = icmp eq i64 %11, 0
  br i1 %.not.i.i17, label %.lr.ph.i.i16, label %rbimpl_intern_const.exit.i12, !llvm.loop !17

rbimpl_intern_const.exit.i12:                     ; preds = %.lr.ph.i.i16, %ancillary_level.exit
  %.lcssa.i.i13 = phi i64 [ %.pr.i.i10, %ancillary_level.exit ], [ %11, %.lr.ph.i.i16 ]
  %12 = tail call i64 @rb_attr_get(i64 noundef %0, i64 noundef %.lcssa.i.i13) #10
  %13 = and i64 %12, 1
  %.not.i3.i14 = icmp eq i64 %13, 0
  br i1 %.not.i3.i14, label %16, label %14

14:                                               ; preds = %rbimpl_intern_const.exit.i12
  %15 = tail call i64 @rb_fix2int(i64 noundef %12) #10
  br label %ancillary_type.exit

16:                                               ; preds = %rbimpl_intern_const.exit.i12
  %17 = tail call i64 @rb_num2int(i64 noundef %12) #10
  br label %ancillary_type.exit

ancillary_type.exit:                              ; preds = %14, %16
  %.0.i.i15 = phi i64 [ %15, %14 ], [ %17, %16 ]
  call void @llvm.lifetime.start.p0(i64 8, ptr nonnull %2) #10
  %.pr.i.i18 = load i64, ptr @ancillary_data.rbimpl_id, align 8, !tbaa !6
  %.not4.i.i19 = icmp eq i64 %.pr.i.i18, 0
  br i1 %.not4.i.i19, label %.lr.ph.i.i22, label %ancillary_data.exit

.lr.ph.i.i22:                                     ; preds = %ancillary_type.exit, %.lr.ph.i.i22
  %18 = tail call i64 @rb_intern2(ptr noundef nonnull @.str.6, i64 noundef 4) #10
  store i64 %18, ptr @ancillary_data.rbimpl_id, align 8, !tbaa !6
  %.not.i.i23 = icmp eq i64 %18, 0
  br i1 %.not.i.i23, label %.lr.ph.i.i22, label %ancillary_data.exit, !llvm.loop !17

ancillary_data.exit:                              ; preds = %.lr.ph.i.i22, %ancillary_type.exit
  %.lcssa.i.i21 = phi i64 [ %.pr.i.i18, %ancillary_type.exit ], [ %18, %.lr.ph.i.i22 ]
  %19 = tail call i64 @rb_attr_get(i64 noundef %0, i64 noundef %.lcssa.i.i21) #10
  store i64 %19, ptr %2, align 8, !tbaa !6
  %20 = call i64 @rb_string_value(ptr noundef nonnull %2) #10
  %21 = load i64, ptr %2, align 8, !tbaa !6
  call void @llvm.lifetime.end.p0(i64 8, ptr nonnull %2) #10
  %22 = and i64 %.0.i.i, 4294967295
  %23 = icmp ne i64 %22, 0
  %24 = and i64 %.0.i.i15, 4294967295
  %25 = icmp ne i64 %24, 8
  %or.cond = select i1 %23, i1 true, i1 %25
  br i1 %or.cond, label %30, label %26

26:                                               ; preds = %ancillary_data.exit
  %27 = inttoptr i64 %21 to ptr
  %28 = getelementptr inbounds nuw i8, ptr %27, i64 16
  %29 = load i64, ptr %28, align 8, !tbaa !19
  %.not = icmp eq i64 %29, 12
  br i1 %.not, label %32, label %30

30:                                               ; preds = %26, %ancillary_data.exit
  %31 = load i64, ptr @rb_eTypeError, align 8, !tbaa !6
  call void (i64, ptr, ...) @rb_raise(i64 noundef %31, ptr noundef nonnull @.str.63) #12
  unreachable

32:                                               ; preds = %26
  %33 = load i64, ptr %27, align 8, !tbaa !15, !noalias !129
  %34 = and i64 %33, 8192
  %.not.i.i24 = icmp eq i64 %34, 0
  %35 = getelementptr inbounds nuw i8, ptr %27, i64 24
  br i1 %.not.i.i24, label %RSTRING_PTR.exit, label %36

36:                                               ; preds = %32
  %.sroa.2.0.copyload.i = load ptr, ptr %35, align 8
  br label %RSTRING_PTR.exit

RSTRING_PTR.exit:                                 ; preds = %32, %36
  %.sroa.2.0.i = phi ptr [ %.sroa.2.0.copyload.i, %36 ], [ %35, %32 ]
  %.sroa.0.0.copyload = load i32, ptr %.sroa.2.0.i, align 1
  %.sroa.4.0..sroa.2.0.i.sroa_idx = getelementptr inbounds nuw i8, ptr %.sroa.2.0.i, i64 4
  %.sroa.4.0.copyload = load i32, ptr %.sroa.4.0..sroa.2.0.i.sroa_idx, align 1
  %.sroa.5.0..sroa.2.0.i.sroa_idx = getelementptr inbounds nuw i8, ptr %.sroa.2.0.i, i64 8
  %.sroa.5.0.copyload = load i32, ptr %.sroa.5.0..sroa.2.0.i.sroa_idx, align 1
  call void @llvm.memset.p0.i64(ptr noundef nonnull align 4 dereferenceable(16) %3, i8 noundef 0, i64 noundef 16, i1 noundef false) #10
  store i16 2, ptr %3, align 4, !tbaa !132
  %37 = getelementptr inbounds nuw i8, ptr %3, i64 4
  store i32 %.sroa.5.0.copyload, ptr %37, align 4
  %38 = call i64 @rsock_addrinfo_new(ptr noundef nonnull %3, i32 noundef 16, i32 noundef 2, i32 noundef 0, i32 noundef 0, i64 noundef 4, i64 noundef 4) #10
  store i16 2, ptr %3, align 4, !tbaa !132
  store i32 %.sroa.4.0.copyload, ptr %37, align 4
  %39 = call i64 @rsock_addrinfo_new(ptr noundef nonnull %3, i32 noundef 16, i32 noundef 2, i32 noundef 0, i32 noundef 0, i64 noundef 4, i64 noundef 4) #10
  %40 = zext i32 %.sroa.0.0.copyload to i64
  %41 = shl nuw nsw i64 %40, 1
  %42 = or disjoint i64 %41, 1
  %43 = call i64 (i64, ...) @rb_ary_new_from_args(i64 noundef 3, i64 noundef %38, i64 noundef %42, i64 noundef %39) #10
  call void @llvm.lifetime.end.p0(i64 16, ptr nonnull %3) #10
  ret i64 %43
}